target datalayout = "e-m:e-p270:32:32-p271:32:32-p272:64:64-i64:64-i128:128-f80:128-n8:16:32:64-S128"
target triple = "x86_64-pc-linux-gnu"

%struct._cmsContext_struct = type { ptr, ptr, [16 x ptr], %struct._cmsMemPluginChunkType }
%struct._cmsMemPluginChunkType = type { ptr, ptr, ptr, ptr, ptr, ptr }
%union.pthread_mutex_t = type { %struct.__pthread_mutex_s }
%struct.__pthread_mutex_s = type { i32, i32, i32, i32, i32, i16, i16, %struct.__pthread_internal_list }
%struct.__pthread_internal_list = type { ptr, ptr }

@_cmsContextPoolHeadMutex = internal global %union.pthread_mutex_t zeroinitializer, align 8
@_cmsContextPoolHead = internal global ptr null, align 8
@.str.4 = private unnamed_addr constant [42 x i8] c"Bad context client -- possible corruption\00", align 1

; Function Attrs: nounwind uwtable
define internal i32 @_cmsLeaveCriticalSectionPrimitive(ptr noundef %0) #0 {
  %2 = alloca ptr, align 8
  store ptr %0, ptr %2, align 8
  %3 = load ptr, ptr %2, align 8
  %4 = call i32 @pthread_mutex_unlock(ptr noundef %3) #8
  ret i32 %4
}

; Function Attrs: nounwind uwtable
define internal i32 @_cmsEnterCriticalSectionPrimitive(ptr noundef %0) #0 {
  %2 = alloca ptr, align 8
  store ptr %0, ptr %2, align 8
  %3 = load ptr, ptr %2, align 8
  %4 = call i32 @pthread_mutex_lock(ptr noundef %3) #8
  ret i32 %4
}

; Function Attrs: nounwind uwtable
define internal i32 @InitContextMutex() #0 {
  ret i32 1
}

; Function Attrs: nounwind uwtable
define hidden ptr @_cmsGetContext(ptr noundef %0) #0 {
  %2 = alloca ptr, align 8
  %3 = alloca ptr, align 8
  %4 = alloca ptr, align 8
  %5 = alloca ptr, align 8
  store ptr %0, ptr %3, align 8
  %6 = load ptr, ptr %3, align 8
  store ptr %6, ptr %4, align 8
  %7 = load ptr, ptr %4, align 8
  %8 = icmp eq ptr %7, null
  br i1 %8, label %9, label %10

9:                                                ; preds = %1
  store ptr @globalContext, ptr %2, align 8
  br label %31

10:                                               ; preds = %1
  %11 = call i32 @InitContextMutex()
  %12 = call i32 @_cmsEnterCriticalSectionPrimitive(ptr noundef @_cmsContextPoolHeadMutex)
  %13 = load ptr, ptr @_cmsContextPoolHead, align 8
  store ptr %13, ptr %5, align 8
  br label %14

14:                                               ; preds = %25, %10
  %15 = load ptr, ptr %5, align 8
  %16 = icmp ne ptr %15, null
  br i1 %16, label %17, label %29

17:                                               ; preds = %14
  %18 = load ptr, ptr %4, align 8
  %19 = load ptr, ptr %5, align 8
  %20 = icmp eq ptr %18, %19
  br i1 %20, label %21, label %24

21:                                               ; preds = %17
  %22 = call i32 @_cmsLeaveCriticalSectionPrimitive(ptr noundef @_cmsContextPoolHeadMutex)
  %23 = load ptr, ptr %5, align 8
  store ptr %23, ptr %2, align 8
  br label %31

24:                                               ; preds = %17
  br label %25

25:                                               ; preds = %24
  %26 = load ptr, ptr %5, align 8
  %27 = getelementptr inbounds %struct._cmsContext_struct, ptr %26, i32 0, i32 0
  %28 = load ptr, ptr %27, align 8
  store ptr %28, ptr %5, align 8
  br label %14, !llvm.loop !10

29:                                               ; preds = %14
  %30 = call i32 @_cmsLeaveCriticalSectionPrimitive(ptr noundef @_cmsContextPoolHeadMutex)
  store ptr @globalContext, ptr %2, align 8
  br label %31

31:                                               ; preds = %29, %21, %9
  %32 = load ptr, ptr %2, align 8
  ret ptr %32
}

; Function Attrs: nounwind uwtable
define hidden ptr @_cmsContextGetClientChunk(ptr noundef %0, i32 noundef %1) #0 {
  %3 = alloca ptr, align 8
  %4 = alloca ptr, align 8
  %5 = alloca i32, align 4
  %6 = alloca ptr, align 8
  %7 = alloca ptr, align 8
  store ptr %0, ptr %4, align 8
  store i32 %1, ptr %5, align 4
  %8 = load i32, ptr %5, align 4
  %9 = icmp slt i32 %8, 0
  br i1 %9, label %13, label %10

10:                                               ; preds = %2
  %11 = load i32, ptr %5, align 4
  %12 = icmp uge i32 %11, 16
  br i1 %12, label %13, label %16

13:                                               ; preds = %10, %2
  %14 = load ptr, ptr %4, align 8
  call void (ptr, i32, ptr, ...) @cmsSignalError(ptr noundef %14, i32 noundef 3, ptr noundef @.str.4)
  %15 = load ptr, ptr getelementptr inbounds (%struct._cmsContext_struct, ptr @globalContext, i32 0, i32 2), align 8
  store ptr %15, ptr %3, align 8
  br label %34

16:                                               ; preds = %10
  %17 = load ptr, ptr %4, align 8
  %18 = call ptr @_cmsGetContext(ptr noundef %17)
  store ptr %18, ptr %6, align 8
  %19 = load ptr, ptr %6, align 8
  %20 = getelementptr inbounds %struct._cmsContext_struct, ptr %19, i32 0, i32 2
  %21 = load i32, ptr %5, align 4
  %22 = zext i32 %21 to i64
  %23 = getelementptr inbounds [16 x ptr], ptr %20, i64 0, i64 %22
  %24 = load ptr, ptr %23, align 8
  store ptr %24, ptr %7, align 8
  %25 = load ptr, ptr %7, align 8
  %26 = icmp ne ptr %25, null
  br i1 %26, label %27, label %29

27:                                               ; preds = %16
  %28 = load ptr, ptr %7, align 8
  store ptr %28, ptr %3, align 8
  br label %34

29:                                               ; preds = %16
  %30 = load i32, ptr %5, align 4
  %31 = zext i32 %30 to i64
  %32 = getelementptr inbounds [16 x ptr], ptr getelementptr inbounds (%struct._cmsContext_struct, ptr @globalContext, i32 0, i32 2), i64 0, i64 %31
  %33 = load ptr, ptr %32, align 8
  store ptr %33, ptr %3, align 8
  br label %34

34:                                               ; preds = %29, %27, %13
  %35 = load ptr, ptr %3, align 8
  ret ptr %35
}